target datalayout = "e-m:e-p270:32:32-p271:32:32-p272:64:64-i64:64-i128:128-f80:128-n8:16:32:64-S128"
target triple = "x86_64-pc-linux-gnu"

%"class.fmt::v11::buffered_file" = type { ptr }

@.str = private unnamed_addr constant [18 x i8] c"cannot close file\00", align 1

; Function Attrs: noinline noreturn nounwind uwtable
define linkonce_odr hidden void @__clang_call_terminate(ptr noundef %0) #2 comdat {
  %2 = call ptr @__cxa_begin_catch(ptr %0) #15
  call void @_ZSt9terminatev() #16
  unreachable
}

; Function Attrs: mustprogress nounwind uwtable
define void @_ZN3fmt3v1113buffered_fileD2Ev(ptr noundef nonnull align 8 dereferenceable(8) %0) unnamed_addr #0 align 2 personality ptr @__gxx_personality_v0 {
  %2 = alloca ptr, align 8
  store ptr %0, ptr %2, align 8, !tbaa !3
  %3 = load ptr, ptr %2, align 8
  %4 = getelementptr inbounds nuw %"class.fmt::v11::buffered_file", ptr %3, i32 0, i32 0
  %5 = load ptr, ptr %4, align 8, !tbaa !8
  %6 = icmp ne ptr %5, null
  br i1 %6, label %7, label %16

7:                                                ; preds = %1
  %8 = getelementptr inbounds nuw %"class.fmt::v11::buffered_file", ptr %3, i32 0, i32 0
  %9 = load ptr, ptr %8, align 8, !tbaa !8
  %10 = invoke i32 @fclose(ptr noundef %9)
          to label %11 unwind label %17

11:                                               ; preds = %7
  %12 = icmp ne i32 %10, 0
  br i1 %12, label %13, label %16

13:                                               ; preds = %11
  %14 = call ptr @__errno_location() #14
  %15 = load i32, ptr %14, align 4, !tbaa !11
  call void @_ZN3fmt3v1119report_system_errorEiPKc(i32 noundef %15, ptr noundef @.str) #15
  br label %16

16:                                               ; preds = %13, %11, %1
  ret void

17:                                               ; preds = %7
  %18 = landingpad { ptr, i32 }
          catch ptr null
  %19 = extractvalue { ptr, i32 } %18, 0
  call void @__clang_call_terminate(ptr %19) #16
  unreachable
}