; Function Attrs: mustprogress nounwind uwtable
define void @_ZN3fmt3v1113buffered_fileD2Ev(ptr noundef nonnull readonly align 8 captures(none) dereferenceable(8) %0) unnamed_addr #0 align 2 personality ptr @__gxx_personality_v0 {
  %2 = load ptr, ptr %0, align 8, !tbaa !3
  %.not = icmp eq ptr %2, null
  br i1 %.not, label %8, label %3

3:                                                ; preds = %1
  %4 = tail call i32 @fclose(ptr noundef nonnull %2)
  %.not1 = icmp eq i32 %4, 0
  br i1 %.not1, label %8, label %5

5:                                                ; preds = %3
  %6 = tail call ptr @__errno_location() #16
  %7 = load i32, ptr %6, align 4, !tbaa !9
  tail call void @_ZN3fmt3v1119report_system_errorEiPKc(i32 noundef %7, ptr noundef nonnull @.str) #17
  br label %8

8:                                                ; preds = %5, %3, %1
  ret void
}